target datalayout = "e-m:e-p270:32:32-p271:32:32-p272:64:64-i64:64-i128:128-f80:128-n8:16:32:64-S128"
target triple = "x86_64-unknown-linux-gnu"

%class.aiMatrix4x4t = type { float, float, float, float, float, float, float, float, float, float, float, float, float, float, float, float }
%class.aiVector3t = type { float, float, float }

; Function Attrs: mustprogress nounwind uwtable
define linkonce_odr noundef float @_ZSt3sinf(float noundef %__x) #0 comdat {
entry:
  %__x.addr = alloca float, align 4
  store float %__x, ptr %__x.addr, align 4
  %0 = load float, ptr %__x.addr, align 4
  %call = call float @sinf(float noundef %0) #3
  ret float %call
}

; Function Attrs: mustprogress nounwind uwtable
define linkonce_odr noundef float @_ZSt3cosf(float noundef %__x) #0 comdat {
entry:
  %__x.addr = alloca float, align 4
  store float %__x, ptr %__x.addr, align 4
  %0 = load float, ptr %__x.addr, align 4
  %call = call float @cosf(float noundef %0) #3
  ret float %call
}

; Function Attrs: mustprogress nounwind uwtable
define linkonce_odr hidden noundef nonnull align 4 dereferenceable(64) ptr @_ZN12aiMatrix4x4tIfE8RotationEfRK10aiVector3tIfERS0_(float noundef %a, ptr noundef nonnull align 4 dereferenceable(12) %axis, ptr noundef nonnull align 4 dereferenceable(64) %out) #0 comdat align 2 {
entry:
  %a.addr = alloca float, align 4
  %axis.addr = alloca ptr, align 8
  %out.addr = alloca ptr, align 8
  %c = alloca float, align 4
  %s = alloca float, align 4
  %t = alloca float, align 4
  %x = alloca float, align 4
  %y = alloca float, align 4
  %z = alloca float, align 4
  store float %a, ptr %a.addr, align 4
  store ptr %axis, ptr %axis.addr, align 8
  store ptr %out, ptr %out.addr, align 8
  %0 = load float, ptr %a.addr, align 4
  %call = call noundef float @_ZSt3cosf(float noundef %0)
  store float %call, ptr %c, align 4
  %1 = load float, ptr %a.addr, align 4
  %call1 = call noundef float @_ZSt3sinf(float noundef %1)
  store float %call1, ptr %s, align 4
  %2 = load float, ptr %c, align 4
  %sub = fsub float 1.000000e+00, %2
  store float %sub, ptr %t, align 4
  %3 = load ptr, ptr %axis.addr, align 8
  %x2 = getelementptr inbounds %class.aiVector3t, ptr %3, i32 0, i32 0
  %4 = load float, ptr %x2, align 4
  store float %4, ptr %x, align 4
  %5 = load ptr, ptr %axis.addr, align 8
  %y3 = getelementptr inbounds %class.aiVector3t, ptr %5, i32 0, i32 1
  %6 = load float, ptr %y3, align 4
  store float %6, ptr %y, align 4
  %7 = load ptr, ptr %axis.addr, align 8
  %z4 = getelementptr inbounds %class.aiVector3t, ptr %7, i32 0, i32 2
  %8 = load float, ptr %z4, align 4
  store float %8, ptr %z, align 4
  %9 = load float, ptr %t, align 4
  %10 = load float, ptr %x, align 4
  %mul = fmul float %9, %10
  %11 = load float, ptr %x, align 4
  %12 = load float, ptr %c, align 4
  %13 = call float @llvm.fmuladd.f32(float %mul, float %11, float %12)
  %14 = load ptr, ptr %out.addr, align 8
  %a1 = getelementptr inbounds %class.aiMatrix4x4t, ptr %14, i32 0, i32 0
  store float %13, ptr %a1, align 4
  %15 = load float, ptr %t, align 4
  %16 = load float, ptr %x, align 4
  %mul6 = fmul float %15, %16
  %17 = load float, ptr %y, align 4
  %18 = load float, ptr %s, align 4
  %19 = load float, ptr %z, align 4
  %mul8 = fmul float %18, %19
  %neg = fneg float %mul8
  %20 = call float @llvm.fmuladd.f32(float %mul6, float %17, float %neg)
  %21 = load ptr, ptr %out.addr, align 8
  %a2 = getelementptr inbounds %class.aiMatrix4x4t, ptr %21, i32 0, i32 1
  store float %20, ptr %a2, align 4
  %22 = load float, ptr %t, align 4
  %23 = load float, ptr %x, align 4
  %mul9 = fmul float %22, %23
  %24 = load float, ptr %z, align 4
  %25 = load float, ptr %s, align 4
  %26 = load float, ptr %y, align 4
  %mul11 = fmul float %25, %26
  %27 = call float @llvm.fmuladd.f32(float %mul9, float %24, float %mul11)
  %28 = load ptr, ptr %out.addr, align 8
  %a3 = getelementptr inbounds %class.aiMatrix4x4t, ptr %28, i32 0, i32 2
  store float %27, ptr %a3, align 4
  %29 = load float, ptr %t, align 4
  %30 = load float, ptr %x, align 4
  %mul12 = fmul float %29, %30
  %31 = load float, ptr %y, align 4
  %32 = load float, ptr %s, align 4
  %33 = load float, ptr %z, align 4
  %mul14 = fmul float %32, %33
  %34 = call float @llvm.fmuladd.f32(float %mul12, float %31, float %mul14)
  %35 = load ptr, ptr %out.addr, align 8
  %b1 = getelementptr inbounds %class.aiMatrix4x4t, ptr %35, i32 0, i32 4
  store float %34, ptr %b1, align 4
  %36 = load float, ptr %t, align 4
  %37 = load float, ptr %y, align 4
  %mul15 = fmul float %36, %37
  %38 = load float, ptr %y, align 4
  %39 = load float, ptr %c, align 4
  %40 = call float @llvm.fmuladd.f32(float %mul15, float %38, float %39)
  %41 = load ptr, ptr %out.addr, align 8
  %b2 = getelementptr inbounds %class.aiMatrix4x4t, ptr %41, i32 0, i32 5
  store float %40, ptr %b2, align 4
  %42 = load float, ptr %t, align 4
  %43 = load float, ptr %y, align 4
  %mul17 = fmul float %42, %43
  %44 = load float, ptr %z, align 4
  %45 = load float, ptr %s, align 4
  %46 = load float, ptr %x, align 4
  %mul19 = fmul float %45, %46
  %neg20 = fneg float %mul19
  %47 = call float @llvm.fmuladd.f32(float %mul17, float %44, float %neg20)
  %48 = load ptr, ptr %out.addr, align 8
  %b3 = getelementptr inbounds %class.aiMatrix4x4t, ptr %48, i32 0, i32 6
  store float %47, ptr %b3, align 4
  %49 = load float, ptr %t, align 4
  %50 = load float, ptr %x, align 4
  %mul21 = fmul float %49, %50
  %51 = load float, ptr %z, align 4
  %52 = load float, ptr %s, align 4
  %53 = load float, ptr %y, align 4
  %mul23 = fmul float %52, %53
  %neg24 = fneg float %mul23
  %54 = call float @llvm.fmuladd.f32(float %mul21, float %51, float %neg24)
  %55 = load ptr, ptr %out.addr, align 8
  %c1 = getelementptr inbounds %class.aiMatrix4x4t, ptr %55, i32 0, i32 8
  store float %54, ptr %c1, align 4
  %56 = load float, ptr %t, align 4
  %57 = load float, ptr %y, align 4
  %mul25 = fmul float %56, %57
  %58 = load float, ptr %z, align 4
  %59 = load float, ptr %s, align 4
  %60 = load float, ptr %x, align 4
  %mul27 = fmul float %59, %60
  %61 = call float @llvm.fmuladd.f32(float %mul25, float %58, float %mul27)
  %62 = load ptr, ptr %out.addr, align 8
  %c2 = getelementptr inbounds %class.aiMatrix4x4t, ptr %62, i32 0, i32 9
  store float %61, ptr %c2, align 4
  %63 = load float, ptr %t, align 4
  %64 = load float, ptr %z, align 4
  %mul28 = fmul float %63, %64
  %65 = load float, ptr %z, align 4
  %66 = load float, ptr %c, align 4
  %67 = call float @llvm.fmuladd.f32(float %mul28, float %65, float %66)
  %68 = load ptr, ptr %out.addr, align 8
  %c3 = getelementptr inbounds %class.aiMatrix4x4t, ptr %68, i32 0, i32 10
  store float %67, ptr %c3, align 4
  %69 = load ptr, ptr %out.addr, align 8
  %c4 = getelementptr inbounds %class.aiMatrix4x4t, ptr %69, i32 0, i32 11
  store float 0.000000e+00, ptr %c4, align 4
  %70 = load ptr, ptr %out.addr, align 8
  %b4 = getelementptr inbounds %class.aiMatrix4x4t, ptr %70, i32 0, i32 7
  store float 0.000000e+00, ptr %b4, align 4
  %71 = load ptr, ptr %out.addr, align 8
  %a4 = getelementptr inbounds %class.aiMatrix4x4t, ptr %71, i32 0, i32 3
  store float 0.000000e+00, ptr %a4, align 4
  %72 = load ptr, ptr %out.addr, align 8
  %d3 = getelementptr inbounds %class.aiMatrix4x4t, ptr %72, i32 0, i32 14
  store float 0.000000e+00, ptr %d3, align 4
  %73 = load ptr, ptr %out.addr, align 8
  %d2 = getelementptr inbounds %class.aiMatrix4x4t, ptr %73, i32 0, i32 13
  store float 0.000000e+00, ptr %d2, align 4
  %74 = load ptr, ptr %out.addr, align 8
  %d1 = getelementptr inbounds %class.aiMatrix4x4t, ptr %74, i32 0, i32 12
  store float 0.000000e+00, ptr %d1, align 4
  %75 = load ptr, ptr %out.addr, align 8
  %d4 = getelementptr inbounds %class.aiMatrix4x4t, ptr %75, i32 0, i32 15
  store float 1.000000e+00, ptr %d4, align 4
  %76 = load ptr, ptr %out.addr, align 8
  ret ptr %76
}

; Function Attrs: mustprogress uwtable
define void @aiMatrix4FromRotationAroundAxis(ptr noundef %mat, ptr noundef %axis, float noundef %angle) #5 {
entry:
  %mat.addr = alloca ptr, align 8
  %axis.addr = alloca ptr, align 8
  %angle.addr = alloca float, align 4
  store ptr %mat, ptr %mat.addr, align 8
  store ptr %axis, ptr %axis.addr, align 8
  store float %angle, ptr %angle.addr, align 4
  %0 = load float, ptr %angle.addr, align 4
  %1 = load ptr, ptr %axis.addr, align 8
  %2 = load ptr, ptr %mat.addr, align 8
  %call = call noundef nonnull align 4 dereferenceable(64) ptr @_ZN12aiMatrix4x4tIfE8RotationEfRK10aiVector3tIfERS0_(float noundef %0, ptr noundef nonnull align 4 dereferenceable(12) %1, ptr noundef nonnull align 4 dereferenceable(64) %2)
  ret void
}