; Function Attrs: mustprogress nofree nounwind willreturn memory(write, argmem: readwrite) uwtable
define void @aiMatrix4FromRotationAroundAxis(ptr nocapture noundef writeonly %mat, ptr nocapture noundef readonly %axis, float noundef %angle) local_unnamed_addr #17 {
entry:
  %call.i.i = tail call noundef float @cosf(float noundef %angle) #44
  %call.i57.i = tail call noundef float @sinf(float noundef %angle) #44
  %sub.i = fsub float 1.000000e+00, %call.i.i
  %z4.i = getelementptr inbounds i8, ptr %axis, i64 8
  %0 = load float, ptr %z4.i, align 4
  %mul8.i = fmul float %call.i57.i, %0
  %neg.i = fneg float %mul8.i
  %1 = load <2 x float>, ptr %axis, align 4
  %2 = insertelement <2 x float> poison, float %call.i.i, i64 0
  %3 = insertelement <2 x float> %2, float %neg.i, i64 1
  %4 = extractelement <2 x float> %1, i64 1
  %mul11.i = fmul float %call.i57.i, %4
  %a3.i = getelementptr inbounds i8, ptr %mat, i64 8
  %b1.i = getelementptr inbounds i8, ptr %mat, i64 16
  %5 = insertelement <2 x float> poison, float %sub.i, i64 0
  %6 = shufflevector <2 x float> %5, <2 x float> poison, <2 x i32> zeroinitializer
  %7 = fmul <2 x float> %6, %1
  %8 = shufflevector <2 x float> %7, <2 x float> poison, <2 x i32> zeroinitializer
  %9 = tail call <2 x float> @llvm.fmuladd.v2f32(<2 x float> %8, <2 x float> %1, <2 x float> %3)
  store <2 x float> %9, ptr %mat, align 4
  %10 = extractelement <2 x float> %7, i64 0
  %11 = tail call float @llvm.fmuladd.f32(float %10, float %0, float %mul11.i)
  store float %11, ptr %a3.i, align 4
  %12 = shufflevector <2 x float> %1, <2 x float> poison, <2 x i32> <i32 1, i32 1>
  %13 = insertelement <2 x float> poison, float %mul8.i, i64 0
  %14 = insertelement <2 x float> %13, float %call.i.i, i64 1
  %15 = tail call <2 x float> @llvm.fmuladd.v2f32(<2 x float> %7, <2 x float> %12, <2 x float> %14)
  store <2 x float> %15, ptr %b1.i, align 4
  %16 = extractelement <2 x float> %1, i64 0
  %mul19.i = fmul float %call.i57.i, %16
  %neg20.i = fneg float %mul19.i
  %17 = extractelement <2 x float> %7, i64 1
  %18 = tail call float @llvm.fmuladd.f32(float %17, float %0, float %neg20.i)
  %b3.i = getelementptr inbounds i8, ptr %mat, i64 24
  store float %18, ptr %b3.i, align 4
  %neg24.i = fneg float %mul11.i
  %c1.i = getelementptr inbounds i8, ptr %mat, i64 32
  %19 = insertelement <2 x float> poison, float %0, i64 0
  %20 = shufflevector <2 x float> %19, <2 x float> poison, <2 x i32> zeroinitializer
  %21 = insertelement <2 x float> poison, float %neg24.i, i64 0
  %22 = insertelement <2 x float> %21, float %mul19.i, i64 1
  %23 = tail call <2 x float> @llvm.fmuladd.v2f32(<2 x float> %7, <2 x float> %20, <2 x float> %22)
  store <2 x float> %23, ptr %c1.i, align 4
  %mul28.i = fmul float %sub.i, %0
  %24 = tail call float @llvm.fmuladd.f32(float %mul28.i, float %0, float %call.i.i)
  %c3.i = getelementptr inbounds i8, ptr %mat, i64 40
  store float %24, ptr %c3.i, align 4
  %c4.i = getelementptr inbounds i8, ptr %mat, i64 44
  %b4.i = getelementptr inbounds i8, ptr %mat, i64 28
  store float 0.000000e+00, ptr %b4.i, align 4
  %a4.i = getelementptr inbounds i8, ptr %mat, i64 12
  store float 0.000000e+00, ptr %a4.i, align 4
  %d4.i = getelementptr inbounds i8, ptr %mat, i64 60
  tail call void @llvm.memset.p0.i64(ptr noundef nonnull align 4 dereferenceable(16) %c4.i, i8 0, i64 16, i1 false)
  store float 1.000000e+00, ptr %d4.i, align 4
  ret void
}